; Function Attrs: nounwind uwtable
define hidden ptr @lxb_html_interface_clone(ptr noundef %0, ptr noundef %1) local_unnamed_addr #0 {
  %3 = icmp eq ptr %0, null
  br i1 %3, label %4, label %7

4:                                                ; preds = %2
  %5 = getelementptr inbounds i8, ptr %1, i64 32
  %6 = load ptr, ptr %5, align 8
  br label %7

7:                                                ; preds = %4, %2
  %.019 = phi ptr [ %6, %4 ], [ %0, %2 ]
  %8 = getelementptr inbounds i8, ptr %1, i64 88
  %9 = load i32, ptr %8, align 8
  switch i32 %9, label %45 [
    i32 1, label %10
    i32 3, label %35
    i32 7, label %37
    i32 8, label %39
    i32 9, label %41
    i32 10, label %43
  ]

10:                                               ; preds = %7
  %11 = getelementptr inbounds i8, ptr %1, i64 8
  %12 = load i64, ptr %11, align 8
  %13 = getelementptr inbounds i8, ptr %1, i64 24
  %14 = load i64, ptr %13, align 8
  %15 = icmp ugt i64 %12, 195
  br i1 %15, label %16, label %23

16:                                               ; preds = %10
  switch i64 %14, label %21 [
    i64 2, label %17
    i64 4, label %19
  ]

17:                                               ; preds = %16
  %18 = tail call ptr @lxb_html_unknown_element_interface_create(ptr noundef %.019) #2
  br label %27

19:                                               ; preds = %16
  %20 = tail call ptr @lxb_dom_element_interface_create(ptr noundef %.019) #2
  br label %27

21:                                               ; preds = %16
  %22 = tail call ptr @lxb_dom_element_interface_create(ptr noundef %.019) #2
  br label %27

23:                                               ; preds = %10
  %24 = getelementptr inbounds [196 x [8 x ptr]], ptr @lxb_html_interface_res_constructors, i64 0, i64 %12, i64 %14
  %25 = load ptr, ptr %24, align 8
  %26 = tail call ptr %25(ptr noundef %.019) #2
  br label %27

27:                                               ; preds = %23, %21, %19, %17
  %.018.i.i = phi ptr [ %18, %17 ], [ %20, %19 ], [ %22, %21 ], [ %26, %23 ]
  %28 = icmp eq ptr %.018.i.i, null
  br i1 %28, label %lxb_html_interface_clone_element.exit, label %29

29:                                               ; preds = %27
  %30 = getelementptr inbounds i8, ptr %.018.i.i, i64 8
  store i64 %12, ptr %30, align 8
  %31 = getelementptr inbounds i8, ptr %.018.i.i, i64 24
  store i64 %14, ptr %31, align 8
  %32 = tail call i32 @lxb_dom_element_interface_copy(ptr noundef nonnull %.018.i.i, ptr noundef nonnull %1) #2
  %.not.i = icmp eq i32 %32, 0
  br i1 %.not.i, label %lxb_html_interface_clone_element.exit, label %33

33:                                               ; preds = %29
  %34 = tail call ptr @lxb_dom_element_interface_destroy(ptr noundef nonnull %.018.i.i) #2
  br label %lxb_html_interface_clone_element.exit

35:                                               ; preds = %7
  %36 = tail call ptr @lxb_dom_text_interface_clone(ptr noundef %.019, ptr noundef nonnull %1) #2
  br label %lxb_html_interface_clone_element.exit

37:                                               ; preds = %7
  %38 = tail call ptr @lxb_dom_processing_instruction_interface_clone(ptr noundef %.019, ptr noundef nonnull %1) #2
  br label %lxb_html_interface_clone_element.exit

39:                                               ; preds = %7
  %40 = tail call ptr @lxb_dom_comment_interface_clone(ptr noundef %.019, ptr noundef nonnull %1) #2
  br label %lxb_html_interface_clone_element.exit

41:                                               ; preds = %7
  %42 = tail call ptr @lxb_dom_document_interface_clone(ptr noundef %.019, ptr noundef nonnull %1) #2
  br label %lxb_html_interface_clone_element.exit

43:                                               ; preds = %7
  %44 = tail call ptr @lxb_dom_document_type_interface_clone(ptr noundef %.019, ptr noundef nonnull %1) #2
  br label %lxb_html_interface_clone_element.exit

45:                                               ; preds = %7
  %46 = tail call ptr @lxb_dom_node_interface_clone(ptr noundef %.019, ptr noundef nonnull %1, i1 noundef zeroext false) #2
  br label %lxb_html_interface_clone_element.exit

lxb_html_interface_clone_element.exit:            ; preds = %33, %29, %27, %45, %43, %41, %39, %37, %35
  %.0 = phi ptr [ %46, %45 ], [ %44, %43 ], [ %42, %41 ], [ %40, %39 ], [ %38, %37 ], [ %36, %35 ], [ %34, %33 ], [ %.018.i.i, %29 ], [ null, %27 ]
  ret ptr %.0
}